; Function Attrs: mustprogress uwtable
define void @_ZN32pxrInternal_v0_24__pxrReserved__32HdsiNurbsApproximatingSceneIndex13_PrimsRemovedERKNS_16HdSceneIndexBaseERKNS_13TfSmallVectorINS_20HdSceneIndexObserver16RemovedPrimEntryELj16EEE(ptr noundef nonnull align 8 dereferenceable(152) %0, ptr nonnull readnone align 8 captures(none) %1, ptr noundef nonnull align 1 %2) unnamed_addr #3 align 2 {
  %4 = tail call noundef zeroext i1 @_ZNK32pxrInternal_v0_24__pxrReserved__16HdSceneIndexBase11_IsObservedEv(ptr noundef nonnull align 8 dereferenceable(120) %0)
  br i1 %4, label %5, label %6

5:                                                ; preds = %3
  tail call void @_ZN32pxrInternal_v0_24__pxrReserved__16HdSceneIndexBase17_SendPrimsRemovedERKNS_13TfSmallVectorINS_20HdSceneIndexObserver16RemovedPrimEntryELj16EEE(ptr noundef nonnull align 8 dereferenceable(120) %0, ptr noundef nonnull align 1 %2)
  br label %6

6:                                                ; preds = %3, %5
  ret void
}